target datalayout = "e-m:e-p270:32:32-p271:32:32-p272:64:64-i64:64-i128:128-f80:128-n8:16:32:64-S128"
target triple = "x86_64-pc-linux-gnu"

%"class.icu_77::number::impl::LocalizedNumberFormatterAsFormat" = type { %"class.icu_77::Format", %"class.icu_77::number::LocalizedNumberFormatter", %"class.icu_77::Locale" }
%"class.icu_77::Format" = type { %"class.icu_77::UObject", ptr, ptr }
%"class.icu_77::UObject" = type { ptr }
%"class.icu_77::number::LocalizedNumberFormatter" = type { %"class.icu_77::number::NumberFormatterSettings", ptr, [8 x i8], ptr }
%"class.icu_77::number::NumberFormatterSettings" = type { %"struct.icu_77::number::impl::MacroProps" }
%"struct.icu_77::number::impl::MacroProps" = type { [4 x i8], %"class.icu_77::number::Notation", %"class.icu_77::MeasureUnit", %"class.icu_77::MeasureUnit", %"class.icu_77::number::Precision", i32, %"class.icu_77::number::impl::Grouper", %"class.icu_77::number::impl::Padder", %"class.icu_77::number::IntegerWidth", %"class.icu_77::number::impl::SymbolsWrapper", i32, i32, i8, i32, %"class.icu_77::number::Scale", %"class.icu_77::number::impl::StringProp", %"class.icu_77::number::impl::StringProp", ptr, ptr, i32, [4 x i8], %"class.icu_77::Locale" }
%"class.icu_77::number::Notation" = type { i32, %"union.icu_77::number::Notation::NotationUnion" }
%"union.icu_77::number::Notation::NotationUnion" = type { %"struct.icu_77::number::Notation::NotationUnion::ScientificSettings" }
%"struct.icu_77::number::Notation::NotationUnion::ScientificSettings" = type { i8, i8, i16, i32 }
%"class.icu_77::MeasureUnit" = type <{ %"class.icu_77::UObject", ptr, i16, i8, [5 x i8] }>
%"class.icu_77::number::Precision" = type <{ i32, [4 x i8], %"union.icu_77::number::Precision::PrecisionUnion", i32, [4 x i8] }>
%"union.icu_77::number::Precision::PrecisionUnion" = type { %"struct.icu_77::number::Precision::PrecisionUnion::IncrementSettings" }
%"struct.icu_77::number::Precision::PrecisionUnion::IncrementSettings" = type { i64, i16, i16 }
%"class.icu_77::number::impl::Grouper" = type { i16, i16, i16, i32 }
%"class.icu_77::number::impl::Padder" = type { i32, %union.anon }
%union.anon = type { %struct.anon }
%struct.anon = type { i32, i32 }
%"class.icu_77::number::IntegerWidth" = type <{ %union.anon.0, i8, [3 x i8] }>
%union.anon.0 = type { i32, [4 x i8] }
%"class.icu_77::number::impl::SymbolsWrapper" = type { i32, %union.anon.2 }
%union.anon.2 = type { ptr }
%"class.icu_77::number::Scale" = type <{ i32, [4 x i8], ptr, i32, [4 x i8] }>
%"class.icu_77::number::impl::StringProp" = type { ptr, i16, i32 }
%"class.icu_77::Locale" = type <{ %"class.icu_77::UObject", [12 x i8], [6 x i8], [4 x i8], [2 x i8], i32, [4 x i8], ptr, [157 x i8], [3 x i8], ptr, i8, [7 x i8] }>

; Function Attrs: inlinehint mustprogress nounwind uwtable
define linkonce_odr noundef ptr @_ZNK6icu_776Locale7getNameEv(ptr noundef nonnull align 8 dereferenceable(217) %0) #2 comdat align 2 {
  %2 = alloca ptr, align 8
  store ptr %0, ptr %2, align 8, !tbaa !27
  %3 = load ptr, ptr %2, align 8
  %4 = getelementptr inbounds nuw %"class.icu_77::Locale", ptr %3, i32 0, i32 7
  %5 = load ptr, ptr %4, align 8, !tbaa !31
  ret ptr %5
}

; Function Attrs: mustprogress uwtable
define void @_ZN6icu_776number4impl32LocalizedNumberFormatterAsFormatC2ERKNS0_24LocalizedNumberFormatterERKNS_6LocaleE(ptr noundef nonnull align 8 dereferenceable(744) %0, ptr noundef nonnull align 8 dereferenceable(496) %1, ptr noundef nonnull align 8 dereferenceable(217) %2) unnamed_addr #1 align 2 personality ptr @__gxx_personality_v0 {
  %4 = alloca ptr, align 8
  %5 = alloca ptr, align 8
  %6 = alloca ptr, align 8
  %7 = alloca ptr, align 8
  %8 = alloca i32, align 4
  %9 = alloca ptr, align 8
  store ptr %0, ptr %4, align 8, !tbaa !23
  store ptr %1, ptr %5, align 8, !tbaa !25
  store ptr %2, ptr %6, align 8, !tbaa !27
  %10 = load ptr, ptr %4, align 8
  call void @_ZN6icu_776FormatC2Ev(ptr noundef nonnull align 8 dereferenceable(24) %10)
  store ptr getelementptr inbounds inrange(-16, 64) ({ [10 x ptr] }, ptr @_ZTVN6icu_776number4impl32LocalizedNumberFormatterAsFormatE, i32 0, i32 0, i32 2), ptr %10, align 8, !tbaa !29
  %11 = getelementptr inbounds nuw %"class.icu_77::number::impl::LocalizedNumberFormatterAsFormat", ptr %10, i32 0, i32 1
  %12 = load ptr, ptr %5, align 8, !tbaa !25
  invoke void @_ZN6icu_776number24LocalizedNumberFormatterC1ERKS1_(ptr noundef nonnull align 8 dereferenceable(496) %11, ptr noundef nonnull align 8 dereferenceable(496) %12)
          to label %13 unwind label %23

13:                                               ; preds = %3
  %14 = getelementptr inbounds nuw %"class.icu_77::number::impl::LocalizedNumberFormatterAsFormat", ptr %10, i32 0, i32 2
  %15 = load ptr, ptr %6, align 8, !tbaa !27
  invoke void @_ZN6icu_776LocaleC1ERKS0_(ptr noundef nonnull align 8 dereferenceable(217) %14, ptr noundef nonnull align 8 dereferenceable(217) %15)
          to label %16 unwind label %27

16:                                               ; preds = %13
  call void @llvm.lifetime.start.p0(i64 8, ptr %9) #11
  %17 = load ptr, ptr %6, align 8, !tbaa !27
  %18 = invoke noundef ptr @_ZNK6icu_776Locale7getNameEv(ptr noundef nonnull align 8 dereferenceable(217) %17)
          to label %19 unwind label %31

19:                                               ; preds = %16
  store ptr %18, ptr %9, align 8, !tbaa !17
  %20 = load ptr, ptr %9, align 8, !tbaa !17
  %21 = load ptr, ptr %9, align 8, !tbaa !17
  invoke void @_ZN6icu_776Format12setLocaleIDsEPKcS2_(ptr noundef nonnull align 8 dereferenceable(24) %10, ptr noundef %20, ptr noundef %21)
          to label %22 unwind label %31

22:                                               ; preds = %19
  call void @llvm.lifetime.end.p0(i64 8, ptr %9) #11
  ret void

23:                                               ; preds = %3
  %24 = landingpad { ptr, i32 }
          cleanup
  %25 = extractvalue { ptr, i32 } %24, 0
  store ptr %25, ptr %7, align 8
  %26 = extractvalue { ptr, i32 } %24, 1
  store i32 %26, ptr %8, align 4
  br label %36

27:                                               ; preds = %13
  %28 = landingpad { ptr, i32 }
          cleanup
  %29 = extractvalue { ptr, i32 } %28, 0
  store ptr %29, ptr %7, align 8
  %30 = extractvalue { ptr, i32 } %28, 1
  store i32 %30, ptr %8, align 4
  br label %35

31:                                               ; preds = %19, %16
  %32 = landingpad { ptr, i32 }
          cleanup
  %33 = extractvalue { ptr, i32 } %32, 0
  store ptr %33, ptr %7, align 8
  %34 = extractvalue { ptr, i32 } %32, 1
  store i32 %34, ptr %8, align 4
  call void @llvm.lifetime.end.p0(i64 8, ptr %9) #11
  call void @_ZN6icu_776LocaleD1Ev(ptr noundef nonnull align 8 dereferenceable(217) %14) #11
  br label %35

35:                                               ; preds = %31, %27
  call void @_ZN6icu_776number24LocalizedNumberFormatterD1Ev(ptr noundef nonnull align 8 dereferenceable(496) %11) #11
  br label %36

36:                                               ; preds = %35, %23
  call void @_ZN6icu_776FormatD2Ev(ptr noundef nonnull align 8 dereferenceable(24) %10) #11
  br label %37

37:                                               ; preds = %36
  %38 = load ptr, ptr %7, align 8
  %39 = load i32, ptr %8, align 4
  %40 = insertvalue { ptr, i32 } poison, ptr %38, 0
  %41 = insertvalue { ptr, i32 } %40, i32 %39, 1
  resume { ptr, i32 } %41
}