; Function Attrs: mustprogress uwtable
define void @_ZN6icu_776number4impl32LocalizedNumberFormatterAsFormatC2ERKNS0_24LocalizedNumberFormatterERKNS_6LocaleE(ptr noundef nonnull align 8 dereferenceable(744) %0, ptr noundef nonnull align 8 dereferenceable(496) %1, ptr noundef nonnull align 8 dereferenceable(217) %2) unnamed_addr #1 align 2 personality ptr @__gxx_personality_v0 {
  tail call void @_ZN6icu_776FormatC2Ev(ptr noundef nonnull align 8 dereferenceable(24) %0)
  store ptr getelementptr inbounds nuw inrange(-16, 64) (i8, ptr @_ZTVN6icu_776number4impl32LocalizedNumberFormatterAsFormatE, i64 16), ptr %0, align 8, !tbaa !15
  %4 = getelementptr inbounds nuw i8, ptr %0, i64 24
  invoke void @_ZN6icu_776number24LocalizedNumberFormatterC1ERKS1_(ptr noundef nonnull align 8 dereferenceable(496) %4, ptr noundef nonnull align 8 dereferenceable(496) %1)
          to label %5 unwind label %11

5:                                                ; preds = %3
  %6 = getelementptr inbounds nuw i8, ptr %0, i64 520
  invoke void @_ZN6icu_776LocaleC1ERKS0_(ptr noundef nonnull align 8 dereferenceable(217) %6, ptr noundef nonnull align 8 dereferenceable(217) %2)
          to label %7 unwind label %13

7:                                                ; preds = %5
  %8 = getelementptr inbounds nuw i8, ptr %2, i64 40
  %9 = load ptr, ptr %8, align 8, !tbaa !17
  invoke void @_ZN6icu_776Format12setLocaleIDsEPKcS2_(ptr noundef nonnull align 8 dereferenceable(24) %0, ptr noundef %9, ptr noundef %9)
          to label %10 unwind label %15

10:                                               ; preds = %7
  ret void

11:                                               ; preds = %3
  %12 = landingpad { ptr, i32 }
          cleanup
  br label %18

13:                                               ; preds = %5
  %14 = landingpad { ptr, i32 }
          cleanup
  br label %17

15:                                               ; preds = %7
  %16 = landingpad { ptr, i32 }
          cleanup
  tail call void @_ZN6icu_776LocaleD1Ev(ptr noundef nonnull align 8 dereferenceable(217) %6) #15
  br label %17

17:                                               ; preds = %15, %13
  %.pn = phi { ptr, i32 } [ %16, %15 ], [ %14, %13 ]
  tail call void @_ZN6icu_776number24LocalizedNumberFormatterD1Ev(ptr noundef nonnull align 8 dereferenceable(496) %4) #15
  br label %18

18:                                               ; preds = %17, %11
  %.pn.pn = phi { ptr, i32 } [ %.pn, %17 ], [ %12, %11 ]
  tail call void @_ZN6icu_776FormatD2Ev(ptr noundef nonnull align 8 dereferenceable(24) %0) #15
  resume { ptr, i32 } %.pn.pn
}